; ModuleID = '54/113.c'
source_filename = "54/113.c"
target datalayout = "e-m:e-p270:32:32-p271:32:32-p272:64:64-i64:64-f80:128-n8:16:32:64-S128"
target triple = "x86_64-pc-linux-gnu"

@.str = private unnamed_addr constant [5 x i8] c"%d%d\00", align 1
@.str.1 = private unnamed_addr constant [3 x i8] c"%d\00", align 1

; Function Attrs: noinline nounwind uwtable
define dso_local i32 @judge_output(i32 %0, i32 %1, i32 %2, i32 %3) #0 {
  %5 = alloca i32, align 4
  %6 = alloca i32, align 4
  %7 = alloca i32, align 4
  %8 = alloca i32, align 4
  %9 = alloca i32, align 4
  %10 = alloca i32, align 4
  %11 = alloca i32, align 4
  store i32 %0, i32* %6, align 4
  store i32 %1, i32* %7, align 4
  store i32 %2, i32* %8, align 4
  store i32 %3, i32* %9, align 4
  %12 = load i32, i32* %8, align 4
  %13 = icmp eq i32 %12, 1
  br i1 %13, label %14, label %16

14:                                               ; preds = %4
  %15 = load i32, i32* %9, align 4
  store i32 %15, i32* %5, align 4
  br label %48

16:                                               ; preds = %4
  %17 = load i32, i32* %6, align 4
  %18 = load i32, i32* %7, align 4
  %19 = load i32, i32* %8, align 4
  %20 = sub nsw i32 %19, 1
  %21 = load i32, i32* %9, align 4
  %22 = call i32 @judge_output(i32 %17, i32 %18, i32 %20, i32 %21)
  %23 = icmp ne i32 %22, 0
  br i1 %23, label %24, label %47

24:                                               ; preds = %16
  %25 = load i32, i32* %6, align 4
  %26 = load i32, i32* %7, align 4
  %27 = load i32, i32* %8, align 4
  %28 = sub nsw i32 %27, 1
  %29 = load i32, i32* %9, align 4
  %30 = call i32 @judge_output(i32 %25, i32 %26, i32 %28, i32 %29)
  store i32 %30, i32* %10, align 4
  %31 = load i32, i32* %10, align 4
  %32 = load i32, i32* %6, align 4
  %33 = sub nsw i32 %32, 1
  %34 = srem i32 %31, %33
  %35 = icmp ne i32 %34, 0
  br i1 %35, label %46, label %36

36:                                               ; preds = %24
  %37 = load i32, i32* %6, align 4
  %38 = load i32, i32* %10, align 4
  %39 = mul nsw i32 %37, %38
  %40 = load i32, i32* %6, align 4
  %41 = sub nsw i32 %40, 1
  %42 = sdiv i32 %39, %41
  %43 = load i32, i32* %7, align 4
  %44 = add nsw i32 %42, %43
  store i32 %44, i32* %11, align 4
  %45 = load i32, i32* %11, align 4
  store i32 %45, i32* %5, align 4
  br label %48

46:                                               ; preds = %24
  store i32 0, i32* %5, align 4
  br label %48

47:                                               ; preds = %16
  store i32 0, i32* %5, align 4
  br label %48

48:                                               ; preds = %47, %46, %36, %14
  %49 = load i32, i32* %5, align 4
  ret i32 %49
}

; Function Attrs: noinline nounwind uwtable
define dso_local void @main() #0 {
  %1 = alloca i32, align 4
  %2 = alloca i32, align 4
  %3 = alloca i32, align 4
  %4 = alloca i32, align 4
  store i32 0, i32* %4, align 4
  %5 = call i32 (i8*, ...) @__isoc99_scanf(i8* getelementptr inbounds ([5 x i8], [5 x i8]* @.str, i64 0, i64 0), i32* %1, i32* %2)
  store i32 1, i32* %3, align 4
  br label %6

6:                                                ; preds = %19, %0
  %7 = load i32, i32* %1, align 4
  %8 = load i32, i32* %2, align 4
  %9 = load i32, i32* %1, align 4
  %10 = add nsw i32 %9, 1
  %11 = load i32, i32* %3, align 4
  %12 = call i32 @judge_output(i32 %7, i32 %8, i32 %10, i32 %11)
  store i32 %12, i32* %4, align 4
  %13 = load i32, i32* %4, align 4
  %14 = icmp ne i32 %13, 0
  br i1 %14, label %15, label %18

15:                                               ; preds = %6
  %16 = load i32, i32* %4, align 4
  %17 = call i32 (i8*, ...) @printf(i8* getelementptr inbounds ([3 x i8], [3 x i8]* @.str.1, i64 0, i64 0), i32 %16)
  br label %22

18:                                               ; preds = %6
  br label %19

19:                                               ; preds = %18
  %20 = load i32, i32* %3, align 4
  %21 = add nsw i32 %20, 1
  store i32 %21, i32* %3, align 4
  br label %6

22:                                               ; preds = %15
  ret void
}

declare dso_local i32 @__isoc99_scanf(i8*, ...) #1

declare dso_local i32 @printf(i8*, ...) #1


!llvm.module.flags = !{!0}
!llvm.ident = !{!1}

!0 = !{i32 1, !"wchar_size", i32 4}
!1 = !{!"clang version 10.0.0-4ubuntu1 "}
